target datalayout = "e-m:e-p270:32:32-p271:32:32-p272:64:64-i64:64-i128:128-f80:128-n8:16:32:64-S128"
target triple = "x86_64-pc-linux-gnu"

%struct.ImGuiTypingSelectRequest = type { i32, i32, ptr, i8, i8, i8 }

; Function Attrs: inlinehint mustprogress nounwind uwtable
define internal noundef signext i8 @_ZL9ImToUpperc(i8 noundef signext %0) #2 {
  %2 = alloca i8, align 1
  store i8 %0, ptr %2, align 1, !tbaa !380
  %3 = load i8, ptr %2, align 1, !tbaa !380
  %4 = sext i8 %3 to i32
  %5 = icmp sge i32 %4, 97
  br i1 %5, label %6, label %15

6:                                                ; preds = %1
  %7 = load i8, ptr %2, align 1, !tbaa !380
  %8 = sext i8 %7 to i32
  %9 = icmp sle i32 %8, 122
  br i1 %9, label %10, label %15

10:                                               ; preds = %6
  %11 = load i8, ptr %2, align 1, !tbaa !380
  %12 = sext i8 %11 to i32
  %13 = and i32 %12, -33
  %14 = trunc i32 %13 to i8
  store i8 %14, ptr %2, align 1, !tbaa !380
  br label %17

15:                                               ; preds = %6, %1
  %16 = load i8, ptr %2, align 1, !tbaa !380
  br label %17

17:                                               ; preds = %15, %10
  %18 = phi i8 [ %14, %10 ], [ %16, %15 ]
  ret i8 %18
}

; Function Attrs: mustprogress uwtable
define internal noundef i32 @_ZL14ImStrimatchlenPKcS0_S0_(ptr noundef %0, ptr noundef %1, ptr noundef %2) #8 {
  %4 = alloca ptr, align 8
  %5 = alloca ptr, align 8
  %6 = alloca ptr, align 8
  %7 = alloca i32, align 4
  store ptr %0, ptr %4, align 8, !tbaa !4
  store ptr %1, ptr %5, align 8, !tbaa !4
  store ptr %2, ptr %6, align 8, !tbaa !4
  call void @llvm.lifetime.start.p0(i64 4, ptr %7) #17
  store i32 0, ptr %7, align 4, !tbaa !9
  br label %8

8:                                                ; preds = %26, %3
  %9 = load ptr, ptr %4, align 8, !tbaa !4
  %10 = load ptr, ptr %5, align 8, !tbaa !4
  %11 = icmp ult ptr %9, %10
  br i1 %11, label %12, label %24

12:                                               ; preds = %8
  %13 = load ptr, ptr %4, align 8, !tbaa !4
  %14 = getelementptr inbounds nuw i8, ptr %13, i32 1
  store ptr %14, ptr %4, align 8, !tbaa !4
  %15 = load i8, ptr %13, align 1, !tbaa !380
  %16 = call noundef signext i8 @_ZL9ImToUpperc(i8 noundef signext %15)
  %17 = sext i8 %16 to i32
  %18 = load ptr, ptr %6, align 8, !tbaa !4
  %19 = getelementptr inbounds nuw i8, ptr %18, i32 1
  store ptr %19, ptr %6, align 8, !tbaa !4
  %20 = load i8, ptr %18, align 1, !tbaa !380
  %21 = call noundef signext i8 @_ZL9ImToUpperc(i8 noundef signext %20)
  %22 = sext i8 %21 to i32
  %23 = icmp eq i32 %17, %22
  br label %24

24:                                               ; preds = %12, %8
  %25 = phi i1 [ false, %8 ], [ %23, %12 ]
  br i1 %25, label %26, label %29

26:                                               ; preds = %24
  %27 = load i32, ptr %7, align 4, !tbaa !9
  %28 = add nsw i32 %27, 1
  store i32 %28, ptr %7, align 4, !tbaa !9
  br label %8, !llvm.loop !645

29:                                               ; preds = %24
  %30 = load i32, ptr %7, align 4, !tbaa !9
  call void @llvm.lifetime.end.p0(i64 4, ptr %7) #17
  ret i32 %30
}

; Function Attrs: mustprogress uwtable
define dso_local noundef i32 @_ZN5ImGui32TypingSelectFindBestLeadingMatchEP24ImGuiTypingSelectRequestiPFPKcPviES4_(ptr noundef %0, i32 noundef %1, ptr noundef %2, ptr noundef %3) #8 {
  %5 = alloca ptr, align 8
  %6 = alloca i32, align 4
  %7 = alloca ptr, align 8
  %8 = alloca ptr, align 8
  %9 = alloca i32, align 4
  %10 = alloca i32, align 4
  %11 = alloca i32, align 4
  %12 = alloca i32, align 4
  %13 = alloca ptr, align 8
  %14 = alloca i32, align 4
  store ptr %0, ptr %5, align 8, !tbaa !626
  store i32 %1, ptr %6, align 4, !tbaa !9
  store ptr %2, ptr %7, align 8, !tbaa !255
  store ptr %3, ptr %8, align 8, !tbaa !255
  call void @llvm.lifetime.start.p0(i64 4, ptr %9) #17
  store i32 -1, ptr %9, align 4, !tbaa !9
  call void @llvm.lifetime.start.p0(i64 4, ptr %10) #17
  store i32 0, ptr %10, align 4, !tbaa !9
  call void @llvm.lifetime.start.p0(i64 4, ptr %11) #17
  store i32 0, ptr %11, align 4, !tbaa !9
  br label %15

15:                                               ; preds = %55, %4
  %16 = load i32, ptr %11, align 4, !tbaa !9
  %17 = load i32, ptr %6, align 4, !tbaa !9
  %18 = icmp slt i32 %16, %17
  br i1 %18, label %20, label %19

19:                                               ; preds = %15
  store i32 2, ptr %12, align 4
  br label %58

20:                                               ; preds = %15
  call void @llvm.lifetime.start.p0(i64 8, ptr %13) #17
  %21 = load ptr, ptr %7, align 8, !tbaa !255
  %22 = load ptr, ptr %8, align 8, !tbaa !255
  %23 = load i32, ptr %11, align 4, !tbaa !9
  %24 = call noundef ptr %21(ptr noundef %22, i32 noundef %23)
  store ptr %24, ptr %13, align 8, !tbaa !4
  call void @llvm.lifetime.start.p0(i64 4, ptr %14) #17
  %25 = load ptr, ptr %5, align 8, !tbaa !626
  %26 = getelementptr inbounds nuw %struct.ImGuiTypingSelectRequest, ptr %25, i32 0, i32 2
  %27 = load ptr, ptr %26, align 8, !tbaa !639
  %28 = load ptr, ptr %5, align 8, !tbaa !626
  %29 = getelementptr inbounds nuw %struct.ImGuiTypingSelectRequest, ptr %28, i32 0, i32 2
  %30 = load ptr, ptr %29, align 8, !tbaa !639
  %31 = load ptr, ptr %5, align 8, !tbaa !626
  %32 = getelementptr inbounds nuw %struct.ImGuiTypingSelectRequest, ptr %31, i32 0, i32 1
  %33 = load i32, ptr %32, align 4, !tbaa !638
  %34 = sext i32 %33 to i64
  %35 = getelementptr inbounds i8, ptr %30, i64 %34
  %36 = load ptr, ptr %13, align 8, !tbaa !4
  %37 = call noundef i32 @_ZL14ImStrimatchlenPKcS0_S0_(ptr noundef %27, ptr noundef %35, ptr noundef %36)
  store i32 %37, ptr %14, align 4, !tbaa !9
  %38 = load i32, ptr %14, align 4, !tbaa !9
  %39 = load i32, ptr %10, align 4, !tbaa !9
  %40 = icmp sle i32 %38, %39
  br i1 %40, label %41, label %42

41:                                               ; preds = %20
  store i32 4, ptr %12, align 4
  br label %52

42:                                               ; preds = %20
  %43 = load i32, ptr %11, align 4, !tbaa !9
  store i32 %43, ptr %9, align 4, !tbaa !9
  %44 = load i32, ptr %14, align 4, !tbaa !9
  store i32 %44, ptr %10, align 4, !tbaa !9
  %45 = load i32, ptr %14, align 4, !tbaa !9
  %46 = load ptr, ptr %5, align 8, !tbaa !626
  %47 = getelementptr inbounds nuw %struct.ImGuiTypingSelectRequest, ptr %46, i32 0, i32 1
  %48 = load i32, ptr %47, align 4, !tbaa !638
  %49 = icmp eq i32 %45, %48
  br i1 %49, label %50, label %51

50:                                               ; preds = %42
  store i32 2, ptr %12, align 4
  br label %52

51:                                               ; preds = %42
  store i32 0, ptr %12, align 4
  br label %52

52:                                               ; preds = %51, %50, %41
  call void @llvm.lifetime.end.p0(i64 4, ptr %14) #17
  call void @llvm.lifetime.end.p0(i64 8, ptr %13) #17
  %53 = load i32, ptr %12, align 4
  switch i32 %53, label %58 [
    i32 0, label %54
    i32 4, label %55
  ]

54:                                               ; preds = %52
  br label %55

55:                                               ; preds = %54, %52
  %56 = load i32, ptr %11, align 4, !tbaa !9
  %57 = add nsw i32 %56, 1
  store i32 %57, ptr %11, align 4, !tbaa !9
  br label %15, !llvm.loop !644

58:                                               ; preds = %52, %19
  call void @llvm.lifetime.end.p0(i64 4, ptr %11) #17
  br label %59

59:                                               ; preds = %58
  %60 = load i32, ptr %9, align 4, !tbaa !9
  store i32 1, ptr %12, align 4
  call void @llvm.lifetime.end.p0(i64 4, ptr %10) #17
  call void @llvm.lifetime.end.p0(i64 4, ptr %9) #17
  ret i32 %60
}