; Function Attrs: mustprogress uwtable
define dso_local noundef i32 @_ZN5ImGui32TypingSelectFindBestLeadingMatchEP24ImGuiTypingSelectRequestiPFPKcPviES4_(ptr noundef readonly captures(none) %0, i32 noundef %1, ptr noundef readonly captures(none) %2, ptr noundef %3) local_unnamed_addr #5 {
  %5 = icmp sgt i32 %1, 0
  br i1 %5, label %.lr.ph, label %._crit_edge

.lr.ph:                                           ; preds = %4
  %6 = getelementptr inbounds nuw i8, ptr %0, i64 8
  %7 = getelementptr inbounds nuw i8, ptr %0, i64 4
  br label %8

8:                                                ; preds = %.lr.ph, %30
  %.029 = phi i32 [ -1, %.lr.ph ], [ %.2.ph, %30 ]
  %.01728 = phi i32 [ 0, %.lr.ph ], [ %.118.ph, %30 ]
  %.02027 = phi i32 [ 0, %.lr.ph ], [ %31, %30 ]
  %9 = tail call noundef ptr %2(ptr noundef %3, i32 noundef %.02027)
  %10 = load ptr, ptr %6, align 8, !tbaa !572
  %11 = load i32, ptr %7, align 4, !tbaa !571
  %12 = sext i32 %11 to i64
  %13 = getelementptr inbounds i8, ptr %10, i64 %12
  %14 = icmp sgt i32 %11, 0
  br i1 %14, label %.lr.ph.i, label %_ZL14ImStrimatchlenPKcS0_S0_.exit

.lr.ph.i:                                         ; preds = %8, %24
  %.010.i = phi i32 [ %27, %24 ], [ 0, %8 ]
  %.059.i = phi ptr [ %25, %24 ], [ %9, %8 ]
  %.068.i = phi ptr [ %26, %24 ], [ %10, %8 ]
  %15 = load i8, ptr %.068.i, align 1, !tbaa !338
  %16 = add i8 %15, -97
  %or.cond.i.i = icmp ult i8 %16, 26
  %17 = and i8 %15, 95
  %18 = select i1 %or.cond.i.i, i8 %17, i8 %15
  %19 = load i8, ptr %.059.i, align 1, !tbaa !338
  %20 = add i8 %19, -97
  %or.cond.i7.i = icmp ult i8 %20, 26
  %21 = and i8 %19, 95
  %22 = select i1 %or.cond.i7.i, i8 %21, i8 %19
  %23 = icmp eq i8 %18, %22
  br i1 %23, label %24, label %_ZL14ImStrimatchlenPKcS0_S0_.exit

24:                                               ; preds = %.lr.ph.i
  %25 = getelementptr inbounds nuw i8, ptr %.059.i, i64 1
  %26 = getelementptr inbounds nuw i8, ptr %.068.i, i64 1
  %27 = add nuw nsw i32 %.010.i, 1
  %exitcond.not.i = icmp eq ptr %26, %13
  br i1 %exitcond.not.i, label %_ZL14ImStrimatchlenPKcS0_S0_.exit, label %.lr.ph.i, !llvm.loop !576

_ZL14ImStrimatchlenPKcS0_S0_.exit:                ; preds = %.lr.ph.i, %24, %8
  %.0.lcssa.i = phi i32 [ 0, %8 ], [ %.010.i, %.lr.ph.i ], [ %11, %24 ]
  %.not = icmp sgt i32 %.0.lcssa.i, %.01728
  br i1 %.not, label %28, label %30

28:                                               ; preds = %_ZL14ImStrimatchlenPKcS0_S0_.exit
  %29 = icmp eq i32 %.0.lcssa.i, %11
  br i1 %29, label %._crit_edge, label %30

30:                                               ; preds = %_ZL14ImStrimatchlenPKcS0_S0_.exit, %28
  %.118.ph = phi i32 [ %.0.lcssa.i, %28 ], [ %.01728, %_ZL14ImStrimatchlenPKcS0_S0_.exit ]
  %.2.ph = phi i32 [ %.02027, %28 ], [ %.029, %_ZL14ImStrimatchlenPKcS0_S0_.exit ]
  %31 = add nuw nsw i32 %.02027, 1
  %exitcond.not = icmp eq i32 %31, %1
  br i1 %exitcond.not, label %._crit_edge, label %8, !llvm.loop !578

._crit_edge:                                      ; preds = %30, %28, %4
  %.1 = phi i32 [ -1, %4 ], [ %.02027, %28 ], [ %.2.ph, %30 ]
  ret i32 %.1
}